target datalayout = "e-m:e-p270:32:32-p271:32:32-p272:64:64-i64:64-i128:128-f80:128-n8:16:32:64-S128"
target triple = "x86_64-pc-linux-gnu"

%struct.expert_field = type { i32, i32 }

@hf_pn_io_mrp_prio = internal global i32 0, align 4
@hf_pn_io_mrp_topchgt = internal global i32 0, align 4
@hf_pn_io_mrp_topnrmax = internal global i32 0, align 4
@hf_pn_io_mrp_tstshortt = internal global i32 0, align 4
@hf_pn_io_mrp_tstdefaultt = internal global i32 0, align 4
@hf_pn_io_mrp_tstnrmax = internal global i32 0, align 4
@ei_pn_io_block_version = internal global %struct.expert_field zeroinitializer, align 4
@.str.1317 = private unnamed_addr constant [41 x i8] c"Block version %u.%u not implemented yet!\00", align 1

; Function Attrs: nounwind uwtable
define internal i32 @dissect_MrpManagerParams_block(ptr noundef %0, i32 noundef %1, ptr noundef %2, ptr noundef %3, ptr noundef %4, ptr noundef %5, i8 noundef zeroext %6, i8 noundef zeroext %7) #0 {
  %9 = alloca i32, align 4
  %10 = alloca ptr, align 8
  %11 = alloca i32, align 4
  %12 = alloca ptr, align 8
  %13 = alloca ptr, align 8
  %14 = alloca ptr, align 8
  %15 = alloca ptr, align 8
  %16 = alloca i8, align 1
  %17 = alloca i8, align 1
  %18 = alloca i16, align 2
  %19 = alloca i16, align 2
  %20 = alloca i16, align 2
  %21 = alloca i16, align 2
  %22 = alloca i16, align 2
  %23 = alloca i16, align 2
  store ptr %0, ptr %10, align 8
  store i32 %1, ptr %11, align 4
  store ptr %2, ptr %12, align 8
  store ptr %3, ptr %13, align 8
  store ptr %4, ptr %14, align 8
  store ptr %5, ptr %15, align 8
  store i8 %6, ptr %16, align 1
  store i8 %7, ptr %17, align 1
  %24 = load i8, ptr %16, align 1
  %25 = zext i8 %24 to i32
  %26 = icmp ne i32 %25, 1
  br i1 %26, label %31, label %27

27:                                               ; preds = %8
  %28 = load i8, ptr %17, align 1
  %29 = zext i8 %28 to i32
  %30 = icmp ne i32 %29, 0
  br i1 %30, label %31, label %40

31:                                               ; preds = %27, %8
  %32 = load ptr, ptr %12, align 8
  %33 = load ptr, ptr %14, align 8
  %34 = load i8, ptr %16, align 1
  %35 = zext i8 %34 to i32
  %36 = load i8, ptr %17, align 1
  %37 = zext i8 %36 to i32
  %38 = call ptr (ptr, ptr, ptr, ptr, ...) @expert_add_info_format(ptr noundef %32, ptr noundef %33, ptr noundef @ei_pn_io_block_version, ptr noundef @.str.1317, i32 noundef %35, i32 noundef %37)
  %39 = load i32, ptr %11, align 4
  store i32 %39, ptr %9, align 4
  br label %89

40:                                               ; preds = %27
  %41 = load ptr, ptr %10, align 8
  %42 = load i32, ptr %11, align 4
  %43 = load ptr, ptr %12, align 8
  %44 = load ptr, ptr %13, align 8
  %45 = load ptr, ptr %15, align 8
  %46 = load i32, ptr @hf_pn_io_mrp_prio, align 4
  %47 = call i32 @dissect_dcerpc_uint16(ptr noundef %41, i32 noundef %42, ptr noundef %43, ptr noundef %44, ptr noundef %45, i32 noundef %46, ptr noundef %18)
  store i32 %47, ptr %11, align 4
  %48 = load ptr, ptr %10, align 8
  %49 = load i32, ptr %11, align 4
  %50 = load ptr, ptr %12, align 8
  %51 = load ptr, ptr %13, align 8
  %52 = load ptr, ptr %15, align 8
  %53 = load i32, ptr @hf_pn_io_mrp_topchgt, align 4
  %54 = call i32 @dissect_dcerpc_uint16(ptr noundef %48, i32 noundef %49, ptr noundef %50, ptr noundef %51, ptr noundef %52, i32 noundef %53, ptr noundef %19)
  store i32 %54, ptr %11, align 4
  %55 = load ptr, ptr %10, align 8
  %56 = load i32, ptr %11, align 4
  %57 = load ptr, ptr %12, align 8
  %58 = load ptr, ptr %13, align 8
  %59 = load ptr, ptr %15, align 8
  %60 = load i32, ptr @hf_pn_io_mrp_topnrmax, align 4
  %61 = call i32 @dissect_dcerpc_uint16(ptr noundef %55, i32 noundef %56, ptr noundef %57, ptr noundef %58, ptr noundef %59, i32 noundef %60, ptr noundef %20)
  store i32 %61, ptr %11, align 4
  %62 = load ptr, ptr %10, align 8
  %63 = load i32, ptr %11, align 4
  %64 = load ptr, ptr %12, align 8
  %65 = load ptr, ptr %13, align 8
  %66 = load ptr, ptr %15, align 8
  %67 = load i32, ptr @hf_pn_io_mrp_tstshortt, align 4
  %68 = call i32 @dissect_dcerpc_uint16(ptr noundef %62, i32 noundef %63, ptr noundef %64, ptr noundef %65, ptr noundef %66, i32 noundef %67, ptr noundef %21)
  store i32 %68, ptr %11, align 4
  %69 = load ptr, ptr %10, align 8
  %70 = load i32, ptr %11, align 4
  %71 = load ptr, ptr %12, align 8
  %72 = load ptr, ptr %13, align 8
  %73 = load ptr, ptr %15, align 8
  %74 = load i32, ptr @hf_pn_io_mrp_tstdefaultt, align 4
  %75 = call i32 @dissect_dcerpc_uint16(ptr noundef %69, i32 noundef %70, ptr noundef %71, ptr noundef %72, ptr noundef %73, i32 noundef %74, ptr noundef %22)
  store i32 %75, ptr %11, align 4
  %76 = load ptr, ptr %10, align 8
  %77 = load i32, ptr %11, align 4
  %78 = load ptr, ptr %12, align 8
  %79 = load ptr, ptr %13, align 8
  %80 = load ptr, ptr %15, align 8
  %81 = load i32, ptr @hf_pn_io_mrp_tstnrmax, align 4
  %82 = call i32 @dissect_dcerpc_uint16(ptr noundef %76, i32 noundef %77, ptr noundef %78, ptr noundef %79, ptr noundef %80, i32 noundef %81, ptr noundef %23)
  store i32 %82, ptr %11, align 4
  %83 = load ptr, ptr %10, align 8
  %84 = load i32, ptr %11, align 4
  %85 = load ptr, ptr %12, align 8
  %86 = load ptr, ptr %13, align 8
  %87 = call i32 @dissect_pn_align4(ptr noundef %83, i32 noundef %84, ptr noundef %85, ptr noundef %86)
  store i32 %87, ptr %11, align 4
  %88 = load i32, ptr %11, align 4
  store i32 %88, ptr %9, align 4
  br label %89

89:                                               ; preds = %40, %31
  %90 = load i32, ptr %9, align 4
  ret i32 %90
}