; Function Attrs: nounwind uwtable
define internal fastcc void @dissect_MrpManagerParams_block(ptr noundef %0, i32 noundef %1, ptr noundef %2, ptr noundef %3, ptr noundef %4, ptr noundef %5, i8 noundef zeroext %6, i8 noundef zeroext %7) unnamed_addr #0 {
  %9 = alloca i16, align 2
  %10 = alloca i16, align 2
  %11 = alloca i16, align 2
  %12 = alloca i16, align 2
  %13 = alloca i16, align 2
  %14 = alloca i16, align 2
  %15 = icmp ne i8 %6, 1
  %16 = icmp ne i8 %7, 0
  %or.cond = or i1 %15, %16
  br i1 %or.cond, label %17, label %21

17:                                               ; preds = %8
  %18 = zext i8 %7 to i32
  %19 = zext i8 %6 to i32
  %20 = tail call ptr (ptr, ptr, ptr, ptr, ...) @expert_add_info_format(ptr noundef %2, ptr noundef %4, ptr noundef nonnull @ei_pn_io_block_version, ptr noundef nonnull @.str.1317, i32 noundef %19, i32 noundef %18) #11
  br label %35

21:                                               ; preds = %8
  %22 = load i32, ptr @hf_pn_io_mrp_prio, align 4
  %23 = call i32 @dissect_dcerpc_uint16(ptr noundef %0, i32 noundef %1, ptr noundef %2, ptr noundef %3, ptr noundef %5, i32 noundef %22, ptr noundef nonnull %9) #11
  %24 = load i32, ptr @hf_pn_io_mrp_topchgt, align 4
  %25 = call i32 @dissect_dcerpc_uint16(ptr noundef %0, i32 noundef %23, ptr noundef %2, ptr noundef %3, ptr noundef %5, i32 noundef %24, ptr noundef nonnull %10) #11
  %26 = load i32, ptr @hf_pn_io_mrp_topnrmax, align 4
  %27 = call i32 @dissect_dcerpc_uint16(ptr noundef %0, i32 noundef %25, ptr noundef %2, ptr noundef %3, ptr noundef %5, i32 noundef %26, ptr noundef nonnull %11) #11
  %28 = load i32, ptr @hf_pn_io_mrp_tstshortt, align 4
  %29 = call i32 @dissect_dcerpc_uint16(ptr noundef %0, i32 noundef %27, ptr noundef %2, ptr noundef %3, ptr noundef %5, i32 noundef %28, ptr noundef nonnull %12) #11
  %30 = load i32, ptr @hf_pn_io_mrp_tstdefaultt, align 4
  %31 = call i32 @dissect_dcerpc_uint16(ptr noundef %0, i32 noundef %29, ptr noundef %2, ptr noundef %3, ptr noundef %5, i32 noundef %30, ptr noundef nonnull %13) #11
  %32 = load i32, ptr @hf_pn_io_mrp_tstnrmax, align 4
  %33 = call i32 @dissect_dcerpc_uint16(ptr noundef %0, i32 noundef %31, ptr noundef %2, ptr noundef %3, ptr noundef %5, i32 noundef %32, ptr noundef nonnull %14) #11
  %34 = call i32 @dissect_pn_align4(ptr noundef %0, i32 noundef %33, ptr noundef %2, ptr noundef %3) #11
  br label %35

35:                                               ; preds = %21, %17
  ret void
}